; Function Attrs: mustprogress uwtable
define void @_ZN2cv21DetectionBasedTracker21SeparateDetectionWork4stopEv(ptr noundef nonnull align 8 dereferenceable(320) %0) local_unnamed_addr #0 align 2 personality ptr @__gxx_personality_v0 {
  %2 = alloca %"class.std::unique_lock", align 8
  call void @llvm.lifetime.start.p0(i64 16, ptr nonnull %2) #26
  %3 = getelementptr inbounds nuw i8, ptr %0, i64 40
  store ptr %3, ptr %2, align 8, !tbaa !60
  %4 = getelementptr inbounds nuw i8, ptr %2, i64 8
  %5 = tail call noundef i32 @pthread_mutex_lock(ptr noundef nonnull align 8 dereferenceable(40) %3) #26
  %.not.i.i.i = icmp eq i32 %5, 0
  br i1 %.not.i.i.i, label %_ZNSt11unique_lockISt5mutexEC2ERS0_.exit, label %6

6:                                                ; preds = %1
  tail call void @_ZSt20__throw_system_errori(i32 noundef %5) #27
  unreachable

_ZNSt11unique_lockISt5mutexEC2ERS0_.exit:         ; preds = %1
  store i8 1, ptr %4, align 8, !tbaa !63
  %7 = getelementptr inbounds nuw i8, ptr %0, i64 204
  %8 = load volatile i32, ptr %7, align 4, !tbaa !44
  %9 = icmp eq i32 %8, 1
  br i1 %9, label %_ZN2cv21DetectionBasedTracker21SeparateDetectionWork9isWorkingEv.exit.thread, label %_ZN2cv21DetectionBasedTracker21SeparateDetectionWork9isWorkingEv.exit

_ZN2cv21DetectionBasedTracker21SeparateDetectionWork9isWorkingEv.exit: ; preds = %_ZNSt11unique_lockISt5mutexEC2ERS0_.exit
  %10 = load volatile i32, ptr %7, align 4, !tbaa !44
  %11 = icmp eq i32 %10, 2
  br i1 %11, label %_ZN2cv21DetectionBasedTracker21SeparateDetectionWork9isWorkingEv.exit.thread, label %_ZNSt11unique_lockISt5mutexE6unlockEv.exit

_ZNSt11unique_lockISt5mutexE6unlockEv.exit:       ; preds = %_ZN2cv21DetectionBasedTracker21SeparateDetectionWork9isWorkingEv.exit
  %12 = tail call noundef i32 @pthread_mutex_unlock(ptr noundef nonnull align 8 dereferenceable(40) %3) #26
  store volatile i32 4, ptr %7, align 4, !tbaa !44
  br label %_ZNSt11unique_lockISt5mutexED2Ev.exit6

13:                                               ; preds = %26, %_ZN2cv21DetectionBasedTracker21SeparateDetectionWork9isWorkingEv.exit.thread
  %14 = landingpad { ptr, i32 }
          cleanup
  %15 = load i8, ptr %4, align 8, !tbaa !63, !range !71, !noundef !75
  %16 = trunc nuw i8 %15 to i1
  br i1 %16, label %17, label %_ZNSt11unique_lockISt5mutexED2Ev.exit

17:                                               ; preds = %13
  %18 = load ptr, ptr %2, align 8, !tbaa !60
  %.not.i.i = icmp eq ptr %18, null
  br i1 %.not.i.i, label %_ZNSt11unique_lockISt5mutexED2Ev.exit, label %19

19:                                               ; preds = %17
  %20 = call noundef i32 @pthread_mutex_unlock(ptr noundef nonnull align 8 dereferenceable(40) %18) #26
  br label %_ZNSt11unique_lockISt5mutexED2Ev.exit

_ZNSt11unique_lockISt5mutexED2Ev.exit:            ; preds = %13, %17, %19
  call void @llvm.lifetime.end.p0(i64 16, ptr nonnull %2) #26
  resume { ptr, i32 } %14

_ZN2cv21DetectionBasedTracker21SeparateDetectionWork9isWorkingEv.exit.thread: ; preds = %_ZNSt11unique_lockISt5mutexEC2ERS0_.exit, %_ZN2cv21DetectionBasedTracker21SeparateDetectionWork9isWorkingEv.exit
  store volatile i32 4, ptr %7, align 4, !tbaa !44
  %21 = getelementptr inbounds nuw i8, ptr %0, i64 80
  tail call void @_ZNSt18condition_variable10notify_oneEv(ptr noundef nonnull align 8 dereferenceable(48) %21) #26
  %22 = getelementptr inbounds nuw i8, ptr %0, i64 128
  invoke void @_ZNSt18condition_variable4waitERSt11unique_lockISt5mutexE(ptr noundef nonnull align 8 dereferenceable(48) %22, ptr noundef nonnull align 8 dereferenceable(9) %2)
          to label %23 unwind label %13

23:                                               ; preds = %_ZN2cv21DetectionBasedTracker21SeparateDetectionWork9isWorkingEv.exit.thread
  %24 = load i8, ptr %4, align 8, !tbaa !63, !range !71, !noundef !75
  %25 = trunc nuw i8 %24 to i1
  br i1 %25, label %27, label %26

26:                                               ; preds = %23
  invoke void @_ZSt20__throw_system_errori(i32 noundef 1) #27
          to label %.noexc3 unwind label %13

.noexc3:                                          ; preds = %26
  unreachable

27:                                               ; preds = %23
  %28 = load ptr, ptr %2, align 8, !tbaa !60
  %.not.i2 = icmp eq ptr %28, null
  br i1 %.not.i2, label %_ZNSt11unique_lockISt5mutexE6unlockEv.exit4, label %29

29:                                               ; preds = %27
  %30 = call noundef i32 @pthread_mutex_unlock(ptr noundef nonnull align 8 dereferenceable(40) %28) #26
  br label %_ZNSt11unique_lockISt5mutexED2Ev.exit6

_ZNSt11unique_lockISt5mutexE6unlockEv.exit4:      ; preds = %27
  %31 = load ptr, ptr %2, align 8, !tbaa !60
  %.not.i.i5 = icmp eq ptr %31, null
  br i1 %.not.i.i5, label %_ZNSt11unique_lockISt5mutexED2Ev.exit6, label %32

32:                                               ; preds = %_ZNSt11unique_lockISt5mutexE6unlockEv.exit4
  %33 = call noundef i32 @pthread_mutex_unlock(ptr noundef nonnull align 8 dereferenceable(40) %31) #26
  br label %_ZNSt11unique_lockISt5mutexED2Ev.exit6

_ZNSt11unique_lockISt5mutexED2Ev.exit6:           ; preds = %_ZNSt11unique_lockISt5mutexE6unlockEv.exit, %29, %_ZNSt11unique_lockISt5mutexE6unlockEv.exit4, %32
  call void @llvm.lifetime.end.p0(i64 16, ptr nonnull %2) #26
  ret void
}